; Function Attrs: mustprogress nofree norecurse nosync nounwind willreturn memory(read, inaccessiblemem: none) uwtable
define hidden noundef ptr @_ZN3euf5enode19get_closest_th_nodeEi(ptr noundef nonnull readonly align 8 captures(ret: address, provenance) dereferenceable(176) %0, i32 noundef %1) local_unnamed_addr #5 align 2 {
  br label %3

3:                                                ; preds = %2, %_ZNK3euf5enode10get_th_varEi.exit.thread
  %.0920 = phi ptr [ %0, %2 ], [ %17, %_ZNK3euf5enode10get_th_varEi.exit.thread ]
  %4 = getelementptr inbounds nuw i8, ptr %.0920, i64 88
  %5 = load i32, ptr %4, align 8
  %6 = icmp ugt i32 %5, -257
  br i1 %6, label %_ZNK3euf5enode10get_th_varEi.exit.thread, label %.preheader.i.i.preheader

.preheader.i.i.preheader:                         ; preds = %3
  %7 = shl i32 %5, 24
  %8 = ashr exact i32 %7, 24
  %9 = icmp eq i32 %1, %8
  br i1 %9, label %.thread, label %.lr.ph

.preheader.i.ithread-pre-split:                   ; preds = %.lr.ph
  %.pr = load i32, ptr %14, align 8
  %10 = shl i32 %.pr, 24
  %11 = ashr exact i32 %10, 24
  %12 = icmp eq i32 %1, %11
  br i1 %12, label %.preheader.i.i._ZNK3euf5enode10get_th_varEi.exit_crit_edge, label %.lr.ph

.lr.ph:                                           ; preds = %.preheader.i.i.preheader, %.preheader.i.ithread-pre-split
  %.0.i.i24 = phi ptr [ %14, %.preheader.i.ithread-pre-split ], [ %4, %.preheader.i.i.preheader ]
  %13 = getelementptr inbounds nuw i8, ptr %.0.i.i24, i64 8
  %14 = load ptr, ptr %13, align 8, !tbaa !43
  %.not.i.i = icmp eq ptr %14, null
  br i1 %.not.i.i, label %_ZNK3euf5enode10get_th_varEi.exit.thread, label %.preheader.i.ithread-pre-split, !llvm.loop !44

.preheader.i.i._ZNK3euf5enode10get_th_varEi.exit_crit_edge: ; preds = %.preheader.i.ithread-pre-split
  %15 = icmp ugt i32 %.pr, -257
  br i1 %15, label %_ZNK3euf5enode10get_th_varEi.exit.thread, label %.thread

_ZNK3euf5enode10get_th_varEi.exit.thread:         ; preds = %.lr.ph, %3, %.preheader.i.i._ZNK3euf5enode10get_th_varEi.exit_crit_edge
  %16 = getelementptr inbounds nuw i8, ptr %.0920, i64 72
  %17 = load ptr, ptr %16, align 8, !tbaa !25
  %.not = icmp eq ptr %17, null
  br i1 %.not, label %.thread, label %3

.thread:                                          ; preds = %.preheader.i.i.preheader, %.preheader.i.i._ZNK3euf5enode10get_th_varEi.exit_crit_edge, %_ZNK3euf5enode10get_th_varEi.exit.thread
  %.09.lcssa = phi ptr [ %.0920, %.preheader.i.i._ZNK3euf5enode10get_th_varEi.exit_crit_edge ], [ null, %_ZNK3euf5enode10get_th_varEi.exit.thread ], [ %.0920, %.preheader.i.i.preheader ]
  ret ptr %.09.lcssa
}